target datalayout = "e-m:e-p270:32:32-p271:32:32-p272:64:64-i64:64-i128:128-f80:128-n8:16:32:64-S128"
target triple = "x86_64-pc-linux-gnu"

%struct._ir_insn = type { %struct.anon, %union.anon.6 }
%struct.anon = type { %union.anon.0, %union.anon.5 }
%union.anon.0 = type { i32 }
%union.anon.5 = type { i32 }
%union.anon.6 = type { %union._ir_val }
%union._ir_val = type { double }
%struct._ir_ctx = type { ptr, i32, i32, i32, i32, i32, i32, i32, i32, i32, i32, %struct._ir_insn, ptr, ptr, ptr, i32, i32, i32, ptr, ptr, ptr, ptr, ptr, i32, i32, i64, i32, i32, i32, i64, i32, i32, i32, i32, ptr, ptr, ptr, ptr, ptr, ptr, %union.anon.14, ptr, i32, i32, i32, i64, i32, i32, i32, ptr, ptr, ptr, ptr, %struct._ir_strtab, [61 x i32], [14 x i32] }
%union.anon.14 = type { ptr }
%struct._ir_strtab = type { ptr, i32, i32, i32, i32, ptr, i32, i32 }
%struct._ir_backend_data = type { %struct._ir_reg_alloc_data, i32, ptr, ptr, i32, i32, i8, i8, i8, i8, i8 }
%struct._ir_reg_alloc_data = type { i32, i32, i32, ptr }
%struct._ir_block = type { i32, i32, i32, i32, i32, i32, i32, %union.anon.15, %union.anon.16, i32, i32, i32, i32 }
%union.anon.15 = type { i32 }
%union.anon.16 = type { i32 }

; Function Attrs: nounwind uwtable
define internal i32 @ir_fix_dessa_tmps(ptr noundef %0, i8 noundef zeroext %1, i32 noundef %2, i32 noundef %3) #0 {
  %5 = alloca ptr, align 8
  %6 = alloca i8, align 1
  %7 = alloca i32, align 4
  %8 = alloca i32, align 4
  %9 = alloca ptr, align 8
  %10 = alloca i32, align 4
  store ptr %0, ptr %5, align 8
  store i8 %1, ptr %6, align 1
  store i32 %2, ptr %7, align 4
  store i32 %3, ptr %8, align 4
  %11 = load ptr, ptr %5, align 8
  %12 = getelementptr inbounds %struct._ir_ctx, ptr %11, i32 0, i32 40
  %13 = load ptr, ptr %12, align 8
  store ptr %13, ptr %9, align 8
  %14 = load ptr, ptr %5, align 8
  %15 = getelementptr inbounds %struct._ir_ctx, ptr %14, i32 0, i32 18
  %16 = load ptr, ptr %15, align 8
  %17 = load ptr, ptr %9, align 8
  %18 = getelementptr inbounds %struct._ir_backend_data, ptr %17, i32 0, i32 1
  %19 = load i32, ptr %18, align 8
  %20 = zext i32 %19 to i64
  %21 = getelementptr inbounds %struct._ir_block, ptr %16, i64 %20
  %22 = getelementptr inbounds %struct._ir_block, ptr %21, i32 0, i32 2
  %23 = load i32, ptr %22, align 4
  store i32 %23, ptr %10, align 4
  %24 = load i32, ptr %8, align 4
  %25 = icmp eq i32 %24, 0
  br i1 %25, label %26, label %71

26:                                               ; preds = %4
  %27 = load i8, ptr %6, align 1
  %28 = zext i8 %27 to i32
  %29 = icmp slt i32 %28, 12
  br i1 %29, label %30, label %50

30:                                               ; preds = %26
  %31 = load ptr, ptr %5, align 8
  %32 = getelementptr inbounds %struct._ir_ctx, ptr %31, i32 0, i32 37
  %33 = load ptr, ptr %32, align 8
  %34 = load i32, ptr %10, align 4
  %35 = sext i32 %34 to i64
  %36 = getelementptr inbounds [4 x i8], ptr %33, i64 %35
  %37 = getelementptr inbounds [4 x i8], ptr %36, i64 0, i64 0
  %38 = load i8, ptr %37, align 1
  %39 = sext i8 %38 to i32
  %40 = icmp eq i32 %39, -1
  br i1 %40, label %41, label %49

41:                                               ; preds = %30
  %42 = load ptr, ptr %5, align 8
  %43 = getelementptr inbounds %struct._ir_ctx, ptr %42, i32 0, i32 37
  %44 = load ptr, ptr %43, align 8
  %45 = load i32, ptr %10, align 4
  %46 = sext i32 %45 to i64
  %47 = getelementptr inbounds [4 x i8], ptr %44, i64 %46
  %48 = getelementptr inbounds [4 x i8], ptr %47, i64 0, i64 0
  store i8 0, ptr %48, align 1
  br label %49

49:                                               ; preds = %41, %30
  br label %70

50:                                               ; preds = %26
  %51 = load ptr, ptr %5, align 8
  %52 = getelementptr inbounds %struct._ir_ctx, ptr %51, i32 0, i32 37
  %53 = load ptr, ptr %52, align 8
  %54 = load i32, ptr %10, align 4
  %55 = sext i32 %54 to i64
  %56 = getelementptr inbounds [4 x i8], ptr %53, i64 %55
  %57 = getelementptr inbounds [4 x i8], ptr %56, i64 0, i64 1
  %58 = load i8, ptr %57, align 1
  %59 = sext i8 %58 to i32
  %60 = icmp eq i32 %59, -1
  br i1 %60, label %61, label %69

61:                                               ; preds = %50
  %62 = load ptr, ptr %5, align 8
  %63 = getelementptr inbounds %struct._ir_ctx, ptr %62, i32 0, i32 37
  %64 = load ptr, ptr %63, align 8
  %65 = load i32, ptr %10, align 4
  %66 = sext i32 %65 to i64
  %67 = getelementptr inbounds [4 x i8], ptr %64, i64 %66
  %68 = getelementptr inbounds [4 x i8], ptr %67, i64 0, i64 1
  store i8 16, ptr %68, align 1
  br label %69

69:                                               ; preds = %61, %50
  br label %70

70:                                               ; preds = %69, %49
  br label %120

71:                                               ; preds = %4
  %72 = load i32, ptr %7, align 4
  %73 = icmp ne i32 %72, 0
  br i1 %73, label %74, label %119

74:                                               ; preds = %71
  %75 = load i8, ptr %6, align 1
  %76 = zext i8 %75 to i32
  %77 = icmp slt i32 %76, 12
  br i1 %77, label %78, label %98

78:                                               ; preds = %74
  %79 = load ptr, ptr %5, align 8
  %80 = getelementptr inbounds %struct._ir_ctx, ptr %79, i32 0, i32 37
  %81 = load ptr, ptr %80, align 8
  %82 = load i32, ptr %10, align 4
  %83 = sext i32 %82 to i64
  %84 = getelementptr inbounds [4 x i8], ptr %81, i64 %83
  %85 = getelementptr inbounds [4 x i8], ptr %84, i64 0, i64 0
  %86 = load i8, ptr %85, align 1
  %87 = sext i8 %86 to i32
  %88 = icmp eq i32 %87, -1
  br i1 %88, label %89, label %97

89:                                               ; preds = %78
  %90 = load ptr, ptr %5, align 8
  %91 = getelementptr inbounds %struct._ir_ctx, ptr %90, i32 0, i32 37
  %92 = load ptr, ptr %91, align 8
  %93 = load i32, ptr %10, align 4
  %94 = sext i32 %93 to i64
  %95 = getelementptr inbounds [4 x i8], ptr %92, i64 %94
  %96 = getelementptr inbounds [4 x i8], ptr %95, i64 0, i64 0
  store i8 0, ptr %96, align 1
  br label %97

97:                                               ; preds = %89, %78
  br label %118

98:                                               ; preds = %74
  %99 = load ptr, ptr %5, align 8
  %100 = getelementptr inbounds %struct._ir_ctx, ptr %99, i32 0, i32 37
  %101 = load ptr, ptr %100, align 8
  %102 = load i32, ptr %10, align 4
  %103 = sext i32 %102 to i64
  %104 = getelementptr inbounds [4 x i8], ptr %101, i64 %103
  %105 = getelementptr inbounds [4 x i8], ptr %104, i64 0, i64 1
  %106 = load i8, ptr %105, align 1
  %107 = sext i8 %106 to i32
  %108 = icmp eq i32 %107, -1
  br i1 %108, label %109, label %117

109:                                              ; preds = %98
  %110 = load ptr, ptr %5, align 8
  %111 = getelementptr inbounds %struct._ir_ctx, ptr %110, i32 0, i32 37
  %112 = load ptr, ptr %111, align 8
  %113 = load i32, ptr %10, align 4
  %114 = sext i32 %113 to i64
  %115 = getelementptr inbounds [4 x i8], ptr %112, i64 %114
  %116 = getelementptr inbounds [4 x i8], ptr %115, i64 0, i64 1
  store i8 16, ptr %116, align 1
  br label %117

117:                                              ; preds = %109, %98
  br label %118

118:                                              ; preds = %117, %97
  br label %119

119:                                              ; preds = %118, %71
  br label %120

120:                                              ; preds = %119, %70
  ret i32 1
}