; Function Attrs: mustprogress nofree norecurse nosync nounwind willreturn memory(readwrite, inaccessiblemem: none) uwtable
define internal noundef i32 @ir_fix_dessa_tmps(ptr nocapture noundef readonly %0, i8 noundef zeroext %1, i32 noundef %2, i32 noundef %3) #17 {
  %5 = getelementptr inbounds i8, ptr %0, i64 248
  %6 = load ptr, ptr %5, align 8
  %7 = getelementptr inbounds i8, ptr %0, i64 104
  %8 = load ptr, ptr %7, align 8
  %9 = getelementptr inbounds i8, ptr %6, i64 24
  %10 = load i32, ptr %9, align 8
  %11 = zext i32 %10 to i64
  %12 = getelementptr inbounds %struct._ir_block, ptr %8, i64 %11, i32 2
  %13 = load i32, ptr %12, align 4
  %14 = icmp eq i32 %3, 0
  br i1 %14, label %15, label %30

15:                                               ; preds = %4
  %16 = icmp ult i8 %1, 12
  %17 = getelementptr inbounds i8, ptr %0, i64 224
  %18 = load ptr, ptr %17, align 8
  %19 = sext i32 %13 to i64
  br i1 %16, label %20, label %25

20:                                               ; preds = %15
  %21 = getelementptr inbounds [4 x i8], ptr %18, i64 %19
  %22 = load i8, ptr %21, align 1
  %23 = icmp eq i8 %22, -1
  br i1 %23, label %24, label %46

24:                                               ; preds = %20
  store i8 0, ptr %21, align 1
  br label %46

25:                                               ; preds = %15
  %26 = getelementptr inbounds [4 x i8], ptr %18, i64 %19, i64 1
  %27 = load i8, ptr %26, align 1
  %28 = icmp eq i8 %27, -1
  br i1 %28, label %29, label %46

29:                                               ; preds = %25
  store i8 16, ptr %26, align 1
  br label %46

30:                                               ; preds = %4
  %.not = icmp eq i32 %2, 0
  br i1 %.not, label %46, label %31

31:                                               ; preds = %30
  %32 = icmp ult i8 %1, 12
  %33 = getelementptr inbounds i8, ptr %0, i64 224
  %34 = load ptr, ptr %33, align 8
  %35 = sext i32 %13 to i64
  br i1 %32, label %36, label %41

36:                                               ; preds = %31
  %37 = getelementptr inbounds [4 x i8], ptr %34, i64 %35
  %38 = load i8, ptr %37, align 1
  %39 = icmp eq i8 %38, -1
  br i1 %39, label %40, label %46

40:                                               ; preds = %36
  store i8 0, ptr %37, align 1
  br label %46

41:                                               ; preds = %31
  %42 = getelementptr inbounds [4 x i8], ptr %34, i64 %35, i64 1
  %43 = load i8, ptr %42, align 1
  %44 = icmp eq i8 %43, -1
  br i1 %44, label %45, label %46

45:                                               ; preds = %41
  store i8 16, ptr %42, align 1
  br label %46

46:                                               ; preds = %30, %41, %45, %36, %40, %24, %20, %29, %25
  ret i32 1
}